target datalayout = "e-m:e-p270:32:32-p271:32:32-p272:64:64-i64:64-i128:128-f80:128-n8:16:32:64-S128"
target triple = "x86_64-pc-linux-gnu"

%struct.AVProbeData = type { ptr, ptr, i32, ptr }

@.str.2 = private unnamed_addr constant [5 x i8] c"DSD \00", align 1

; Function Attrs: nounwind uwtable
define internal i32 @dsf_probe(ptr noundef %0) #0 {
  %2 = alloca i32, align 4
  %3 = alloca ptr, align 8
  store ptr %0, ptr %3, align 8, !tbaa !4
  %4 = load ptr, ptr %3, align 8, !tbaa !4
  %5 = getelementptr inbounds nuw %struct.AVProbeData, ptr %4, i32 0, i32 2
  %6 = load i32, ptr %5, align 8, !tbaa !9
  %7 = icmp slt i32 %6, 12
  br i1 %7, label %21, label %8

8:                                                ; preds = %1
  %9 = load ptr, ptr %3, align 8, !tbaa !4
  %10 = getelementptr inbounds nuw %struct.AVProbeData, ptr %9, i32 0, i32 1
  %11 = load ptr, ptr %10, align 8, !tbaa !13
  %12 = call i32 @memcmp(ptr noundef %11, ptr noundef @.str.2, i64 noundef 4) #6
  %13 = icmp ne i32 %12, 0
  br i1 %13, label %21, label %14

14:                                               ; preds = %8
  %15 = load ptr, ptr %3, align 8, !tbaa !4
  %16 = getelementptr inbounds nuw %struct.AVProbeData, ptr %15, i32 0, i32 1
  %17 = load ptr, ptr %16, align 8, !tbaa !13
  %18 = getelementptr inbounds i8, ptr %17, i64 4
  %19 = load i64, ptr %18, align 1, !tbaa !14
  %20 = icmp ne i64 %19, 28
  br i1 %20, label %21, label %22

21:                                               ; preds = %14, %8, %1
  store i32 0, ptr %2, align 4
  br label %23

22:                                               ; preds = %14
  store i32 100, ptr %2, align 4
  br label %23

23:                                               ; preds = %22, %21
  %24 = load i32, ptr %2, align 4
  ret i32 %24
}