; Function Attrs: mustprogress nofree norecurse nounwind willreturn memory(read, inaccessiblemem: none) uwtable
define internal range(i32 0, 101) i32 @dsf_probe(ptr noundef readonly captures(none) %0) #0 {
  %2 = getelementptr inbounds nuw i8, ptr %0, i64 16
  %3 = load i32, ptr %2, align 8, !tbaa !4
  %4 = icmp slt i32 %3, 12
  br i1 %4, label %11, label %5

5:                                                ; preds = %1
  %6 = getelementptr inbounds nuw i8, ptr %0, i64 8
  %7 = load ptr, ptr %6, align 8, !tbaa !11
  %bcmp = tail call i32 @bcmp(ptr noundef nonnull dereferenceable(4) %7, ptr noundef nonnull dereferenceable(4) @.str.2, i64 4)
  %.not = icmp eq i32 %bcmp, 0
  br i1 %.not, label %8, label %11

8:                                                ; preds = %5
  %9 = getelementptr inbounds nuw i8, ptr %7, i64 4
  %10 = load i64, ptr %9, align 1, !tbaa !12
  %.not3 = icmp eq i64 %10, 28
  %spec.select = select i1 %.not3, i32 100, i32 0
  br label %11

11:                                               ; preds = %8, %1, %5
  %.0 = phi i32 [ 0, %5 ], [ 0, %1 ], [ %spec.select, %8 ]
  ret i32 %.0
}